; Function Attrs: nofree nounwind memory(readwrite, inaccessiblemem: none) uwtable
define internal void @dataOfferHandleOffer(ptr readnone captures(none) %0, ptr noundef readnone captures(address) %1, ptr noundef readonly captures(none) %2) #10 {
  %4 = load i32, ptr getelementptr inbounds nuw (i8, ptr @_glfw, i64 134040), align 8, !tbaa !174
  %.not = icmp eq i32 %4, 0
  br i1 %.not, label %.loopexit, label %.lr.ph

.lr.ph:                                           ; preds = %3
  %5 = load ptr, ptr getelementptr inbounds nuw (i8, ptr @_glfw, i64 134032), align 8, !tbaa !173
  %wide.trip.count = zext i32 %4 to i64
  br label %7

6:                                                ; preds = %7
  %indvars.iv.next = add nuw nsw i64 %indvars.iv, 1
  %exitcond.not = icmp eq i64 %indvars.iv.next, %wide.trip.count
  br i1 %exitcond.not, label %.loopexit, label %7

7:                                                ; preds = %.lr.ph, %6
  %indvars.iv = phi i64 [ 0, %.lr.ph ], [ %indvars.iv.next, %6 ]
  %8 = getelementptr inbounds nuw %struct._GLFWofferWayland, ptr %5, i64 %indvars.iv
  %9 = load ptr, ptr %8, align 8, !tbaa !178
  %10 = icmp eq ptr %9, %1
  br i1 %10, label %11, label %6

11:                                               ; preds = %7
  %12 = tail call i32 @strcmp(ptr noundef nonnull dereferenceable(1) %2, ptr noundef nonnull dereferenceable(25) @.str.32) #22
  %13 = icmp eq i32 %12, 0
  br i1 %13, label %14, label %16

14:                                               ; preds = %11
  %15 = getelementptr inbounds nuw i8, ptr %8, i64 8
  store i32 1, ptr %15, align 8, !tbaa !188
  br label %.loopexit

16:                                               ; preds = %11
  %17 = tail call i32 @strcmp(ptr noundef nonnull dereferenceable(1) %2, ptr noundef nonnull dereferenceable(14) @.str.41) #22
  %18 = icmp eq i32 %17, 0
  br i1 %18, label %19, label %.loopexit

19:                                               ; preds = %16
  %20 = getelementptr inbounds nuw i8, ptr %8, i64 12
  store i32 1, ptr %20, align 4, !tbaa !182
  br label %.loopexit

.loopexit:                                        ; preds = %6, %3, %14, %19, %16
  ret void
}